target datalayout = "e-m:e-p270:32:32-p271:32:32-p272:64:64-i64:64-i128:128-f80:128-n8:16:32:64-S128"
target triple = "x86_64-pc-linux-gnu"

; Function Attrs: nounwind uwtable
define internal void @VL4_C(ptr noundef %0) #0 {
  %2 = alloca ptr, align 8
  %3 = alloca i32, align 4
  %4 = alloca i32, align 4
  %5 = alloca i32, align 4
  %6 = alloca i32, align 4
  %7 = alloca i32, align 4
  %8 = alloca i32, align 4
  %9 = alloca i32, align 4
  %10 = alloca i32, align 4
  store ptr %0, ptr %2, align 8, !tbaa !16
  call void @llvm.lifetime.start.p0(i64 4, ptr %3) #7
  %11 = load ptr, ptr %2, align 8, !tbaa !16
  %12 = getelementptr inbounds i8, ptr %11, i64 -32
  %13 = load i8, ptr %12, align 1, !tbaa !18
  %14 = zext i8 %13 to i32
  store i32 %14, ptr %3, align 4, !tbaa !9
  call void @llvm.lifetime.start.p0(i64 4, ptr %4) #7
  %15 = load ptr, ptr %2, align 8, !tbaa !16
  %16 = getelementptr inbounds i8, ptr %15, i64 -31
  %17 = load i8, ptr %16, align 1, !tbaa !18
  %18 = zext i8 %17 to i32
  store i32 %18, ptr %4, align 4, !tbaa !9
  call void @llvm.lifetime.start.p0(i64 4, ptr %5) #7
  %19 = load ptr, ptr %2, align 8, !tbaa !16
  %20 = getelementptr inbounds i8, ptr %19, i64 -30
  %21 = load i8, ptr %20, align 1, !tbaa !18
  %22 = zext i8 %21 to i32
  store i32 %22, ptr %5, align 4, !tbaa !9
  call void @llvm.lifetime.start.p0(i64 4, ptr %6) #7
  %23 = load ptr, ptr %2, align 8, !tbaa !16
  %24 = getelementptr inbounds i8, ptr %23, i64 -29
  %25 = load i8, ptr %24, align 1, !tbaa !18
  %26 = zext i8 %25 to i32
  store i32 %26, ptr %6, align 4, !tbaa !9
  call void @llvm.lifetime.start.p0(i64 4, ptr %7) #7
  %27 = load ptr, ptr %2, align 8, !tbaa !16
  %28 = getelementptr inbounds i8, ptr %27, i64 -28
  %29 = load i8, ptr %28, align 1, !tbaa !18
  %30 = zext i8 %29 to i32
  store i32 %30, ptr %7, align 4, !tbaa !9
  call void @llvm.lifetime.start.p0(i64 4, ptr %8) #7
  %31 = load ptr, ptr %2, align 8, !tbaa !16
  %32 = getelementptr inbounds i8, ptr %31, i64 -27
  %33 = load i8, ptr %32, align 1, !tbaa !18
  %34 = zext i8 %33 to i32
  store i32 %34, ptr %8, align 4, !tbaa !9
  call void @llvm.lifetime.start.p0(i64 4, ptr %9) #7
  %35 = load ptr, ptr %2, align 8, !tbaa !16
  %36 = getelementptr inbounds i8, ptr %35, i64 -26
  %37 = load i8, ptr %36, align 1, !tbaa !18
  %38 = zext i8 %37 to i32
  store i32 %38, ptr %9, align 4, !tbaa !9
  call void @llvm.lifetime.start.p0(i64 4, ptr %10) #7
  %39 = load ptr, ptr %2, align 8, !tbaa !16
  %40 = getelementptr inbounds i8, ptr %39, i64 -25
  %41 = load i8, ptr %40, align 1, !tbaa !18
  %42 = zext i8 %41 to i32
  store i32 %42, ptr %10, align 4, !tbaa !9
  %43 = load i32, ptr %3, align 4, !tbaa !9
  %44 = load i32, ptr %4, align 4, !tbaa !9
  %45 = add nsw i32 %43, %44
  %46 = add nsw i32 %45, 1
  %47 = ashr i32 %46, 1
  %48 = trunc i32 %47 to i8
  %49 = load ptr, ptr %2, align 8, !tbaa !16
  %50 = getelementptr inbounds i8, ptr %49, i64 0
  store i8 %48, ptr %50, align 1, !tbaa !18
  %51 = load i32, ptr %4, align 4, !tbaa !9
  %52 = load i32, ptr %5, align 4, !tbaa !9
  %53 = add nsw i32 %51, %52
  %54 = add nsw i32 %53, 1
  %55 = ashr i32 %54, 1
  %56 = trunc i32 %55 to i8
  %57 = load ptr, ptr %2, align 8, !tbaa !16
  %58 = getelementptr inbounds i8, ptr %57, i64 64
  store i8 %56, ptr %58, align 1, !tbaa !18
  %59 = load ptr, ptr %2, align 8, !tbaa !16
  %60 = getelementptr inbounds i8, ptr %59, i64 1
  store i8 %56, ptr %60, align 1, !tbaa !18
  %61 = load i32, ptr %5, align 4, !tbaa !9
  %62 = load i32, ptr %6, align 4, !tbaa !9
  %63 = add nsw i32 %61, %62
  %64 = add nsw i32 %63, 1
  %65 = ashr i32 %64, 1
  %66 = trunc i32 %65 to i8
  %67 = load ptr, ptr %2, align 8, !tbaa !16
  %68 = getelementptr inbounds i8, ptr %67, i64 65
  store i8 %66, ptr %68, align 1, !tbaa !18
  %69 = load ptr, ptr %2, align 8, !tbaa !16
  %70 = getelementptr inbounds i8, ptr %69, i64 2
  store i8 %66, ptr %70, align 1, !tbaa !18
  %71 = load i32, ptr %6, align 4, !tbaa !9
  %72 = load i32, ptr %7, align 4, !tbaa !9
  %73 = add nsw i32 %71, %72
  %74 = add nsw i32 %73, 1
  %75 = ashr i32 %74, 1
  %76 = trunc i32 %75 to i8
  %77 = load ptr, ptr %2, align 8, !tbaa !16
  %78 = getelementptr inbounds i8, ptr %77, i64 66
  store i8 %76, ptr %78, align 1, !tbaa !18
  %79 = load ptr, ptr %2, align 8, !tbaa !16
  %80 = getelementptr inbounds i8, ptr %79, i64 3
  store i8 %76, ptr %80, align 1, !tbaa !18
  %81 = load i32, ptr %3, align 4, !tbaa !9
  %82 = load i32, ptr %4, align 4, !tbaa !9
  %83 = mul nsw i32 2, %82
  %84 = add nsw i32 %81, %83
  %85 = load i32, ptr %5, align 4, !tbaa !9
  %86 = add nsw i32 %84, %85
  %87 = add nsw i32 %86, 2
  %88 = ashr i32 %87, 2
  %89 = trunc i32 %88 to i8
  %90 = load ptr, ptr %2, align 8, !tbaa !16
  %91 = getelementptr inbounds i8, ptr %90, i64 32
  store i8 %89, ptr %91, align 1, !tbaa !18
  %92 = load i32, ptr %4, align 4, !tbaa !9
  %93 = load i32, ptr %5, align 4, !tbaa !9
  %94 = mul nsw i32 2, %93
  %95 = add nsw i32 %92, %94
  %96 = load i32, ptr %6, align 4, !tbaa !9
  %97 = add nsw i32 %95, %96
  %98 = add nsw i32 %97, 2
  %99 = ashr i32 %98, 2
  %100 = trunc i32 %99 to i8
  %101 = load ptr, ptr %2, align 8, !tbaa !16
  %102 = getelementptr inbounds i8, ptr %101, i64 96
  store i8 %100, ptr %102, align 1, !tbaa !18
  %103 = load ptr, ptr %2, align 8, !tbaa !16
  %104 = getelementptr inbounds i8, ptr %103, i64 33
  store i8 %100, ptr %104, align 1, !tbaa !18
  %105 = load i32, ptr %5, align 4, !tbaa !9
  %106 = load i32, ptr %6, align 4, !tbaa !9
  %107 = mul nsw i32 2, %106
  %108 = add nsw i32 %105, %107
  %109 = load i32, ptr %7, align 4, !tbaa !9
  %110 = add nsw i32 %108, %109
  %111 = add nsw i32 %110, 2
  %112 = ashr i32 %111, 2
  %113 = trunc i32 %112 to i8
  %114 = load ptr, ptr %2, align 8, !tbaa !16
  %115 = getelementptr inbounds i8, ptr %114, i64 97
  store i8 %113, ptr %115, align 1, !tbaa !18
  %116 = load ptr, ptr %2, align 8, !tbaa !16
  %117 = getelementptr inbounds i8, ptr %116, i64 34
  store i8 %113, ptr %117, align 1, !tbaa !18
  %118 = load i32, ptr %6, align 4, !tbaa !9
  %119 = load i32, ptr %7, align 4, !tbaa !9
  %120 = mul nsw i32 2, %119
  %121 = add nsw i32 %118, %120
  %122 = load i32, ptr %8, align 4, !tbaa !9
  %123 = add nsw i32 %121, %122
  %124 = add nsw i32 %123, 2
  %125 = ashr i32 %124, 2
  %126 = trunc i32 %125 to i8
  %127 = load ptr, ptr %2, align 8, !tbaa !16
  %128 = getelementptr inbounds i8, ptr %127, i64 98
  store i8 %126, ptr %128, align 1, !tbaa !18
  %129 = load ptr, ptr %2, align 8, !tbaa !16
  %130 = getelementptr inbounds i8, ptr %129, i64 35
  store i8 %126, ptr %130, align 1, !tbaa !18
  %131 = load i32, ptr %7, align 4, !tbaa !9
  %132 = load i32, ptr %8, align 4, !tbaa !9
  %133 = mul nsw i32 2, %132
  %134 = add nsw i32 %131, %133
  %135 = load i32, ptr %9, align 4, !tbaa !9
  %136 = add nsw i32 %134, %135
  %137 = add nsw i32 %136, 2
  %138 = ashr i32 %137, 2
  %139 = trunc i32 %138 to i8
  %140 = load ptr, ptr %2, align 8, !tbaa !16
  %141 = getelementptr inbounds i8, ptr %140, i64 67
  store i8 %139, ptr %141, align 1, !tbaa !18
  %142 = load i32, ptr %8, align 4, !tbaa !9
  %143 = load i32, ptr %9, align 4, !tbaa !9
  %144 = mul nsw i32 2, %143
  %145 = add nsw i32 %142, %144
  %146 = load i32, ptr %10, align 4, !tbaa !9
  %147 = add nsw i32 %145, %146
  %148 = add nsw i32 %147, 2
  %149 = ashr i32 %148, 2
  %150 = trunc i32 %149 to i8
  %151 = load ptr, ptr %2, align 8, !tbaa !16
  %152 = getelementptr inbounds i8, ptr %151, i64 99
  store i8 %150, ptr %152, align 1, !tbaa !18
  call void @llvm.lifetime.end.p0(i64 4, ptr %10) #7
  call void @llvm.lifetime.end.p0(i64 4, ptr %9) #7
  call void @llvm.lifetime.end.p0(i64 4, ptr %8) #7
  call void @llvm.lifetime.end.p0(i64 4, ptr %7) #7
  call void @llvm.lifetime.end.p0(i64 4, ptr %6) #7
  call void @llvm.lifetime.end.p0(i64 4, ptr %5) #7
  call void @llvm.lifetime.end.p0(i64 4, ptr %4) #7
  call void @llvm.lifetime.end.p0(i64 4, ptr %3) #7
  ret void
}