; Function Attrs: mustprogress nofree norecurse nosync nounwind willreturn memory(argmem: readwrite) uwtable
define internal void @VL4_C(ptr noundef captures(none) initializes((0, 4), (32, 36), (64, 68), (96, 100)) %0) #4 {
  %2 = getelementptr inbounds i8, ptr %0, i64 -32
  %3 = load i8, ptr %2, align 1, !tbaa !14
  %4 = zext i8 %3 to i32
  %5 = getelementptr inbounds i8, ptr %0, i64 -31
  %6 = load i8, ptr %5, align 1, !tbaa !14
  %7 = zext i8 %6 to i32
  %8 = getelementptr inbounds i8, ptr %0, i64 -30
  %9 = load i8, ptr %8, align 1, !tbaa !14
  %10 = zext i8 %9 to i32
  %11 = getelementptr inbounds i8, ptr %0, i64 -29
  %12 = load i8, ptr %11, align 1, !tbaa !14
  %13 = zext i8 %12 to i32
  %14 = getelementptr inbounds i8, ptr %0, i64 -28
  %15 = load i8, ptr %14, align 1, !tbaa !14
  %16 = zext i8 %15 to i32
  %17 = getelementptr inbounds i8, ptr %0, i64 -27
  %18 = load i8, ptr %17, align 1, !tbaa !14
  %19 = zext i8 %18 to i32
  %20 = getelementptr inbounds i8, ptr %0, i64 -26
  %21 = load i8, ptr %20, align 1, !tbaa !14
  %22 = zext i8 %21 to i32
  %23 = getelementptr inbounds i8, ptr %0, i64 -25
  %24 = load i8, ptr %23, align 1, !tbaa !14
  %25 = zext i8 %24 to i32
  %26 = add nuw nsw i32 %7, 1
  %27 = add nuw nsw i32 %26, %4
  %28 = lshr i32 %27, 1
  %29 = trunc nuw i32 %28 to i8
  store i8 %29, ptr %0, align 1, !tbaa !14
  %30 = add nuw nsw i32 %26, %10
  %31 = lshr i32 %30, 1
  %32 = trunc nuw i32 %31 to i8
  %33 = getelementptr inbounds nuw i8, ptr %0, i64 64
  store i8 %32, ptr %33, align 1, !tbaa !14
  %34 = getelementptr inbounds nuw i8, ptr %0, i64 1
  store i8 %32, ptr %34, align 1, !tbaa !14
  %35 = add nuw nsw i32 %10, 1
  %36 = add nuw nsw i32 %35, %13
  %37 = lshr i32 %36, 1
  %38 = trunc nuw i32 %37 to i8
  %39 = getelementptr inbounds nuw i8, ptr %0, i64 65
  store i8 %38, ptr %39, align 1, !tbaa !14
  %40 = getelementptr inbounds nuw i8, ptr %0, i64 2
  store i8 %38, ptr %40, align 1, !tbaa !14
  %41 = add nuw nsw i32 %13, 1
  %42 = add nuw nsw i32 %41, %16
  %43 = lshr i32 %42, 1
  %44 = trunc nuw i32 %43 to i8
  %45 = getelementptr inbounds nuw i8, ptr %0, i64 66
  store i8 %44, ptr %45, align 1, !tbaa !14
  %46 = getelementptr inbounds nuw i8, ptr %0, i64 3
  store i8 %44, ptr %46, align 1, !tbaa !14
  %47 = shl nuw nsw i32 %7, 1
  %48 = add nuw nsw i32 %10, 2
  %49 = add nuw nsw i32 %48, %4
  %50 = add nuw nsw i32 %49, %47
  %51 = lshr i32 %50, 2
  %52 = trunc nuw i32 %51 to i8
  %53 = getelementptr inbounds nuw i8, ptr %0, i64 32
  store i8 %52, ptr %53, align 1, !tbaa !14
  %54 = shl nuw nsw i32 %10, 1
  %55 = add nuw nsw i32 %13, 2
  %56 = add nuw nsw i32 %55, %7
  %57 = add nuw nsw i32 %56, %54
  %58 = lshr i32 %57, 2
  %59 = trunc nuw i32 %58 to i8
  %60 = getelementptr inbounds nuw i8, ptr %0, i64 96
  store i8 %59, ptr %60, align 1, !tbaa !14
  %61 = getelementptr inbounds nuw i8, ptr %0, i64 33
  store i8 %59, ptr %61, align 1, !tbaa !14
  %62 = shl nuw nsw i32 %13, 1
  %63 = add nuw nsw i32 %48, %62
  %64 = add nuw nsw i32 %63, %16
  %65 = lshr i32 %64, 2
  %66 = trunc nuw i32 %65 to i8
  %67 = getelementptr inbounds nuw i8, ptr %0, i64 97
  store i8 %66, ptr %67, align 1, !tbaa !14
  %68 = getelementptr inbounds nuw i8, ptr %0, i64 34
  store i8 %66, ptr %68, align 1, !tbaa !14
  %69 = shl nuw nsw i32 %16, 1
  %70 = add nuw nsw i32 %55, %69
  %71 = add nuw nsw i32 %70, %19
  %72 = lshr i32 %71, 2
  %73 = trunc nuw i32 %72 to i8
  %74 = getelementptr inbounds nuw i8, ptr %0, i64 98
  store i8 %73, ptr %74, align 1, !tbaa !14
  %75 = getelementptr inbounds nuw i8, ptr %0, i64 35
  store i8 %73, ptr %75, align 1, !tbaa !14
  %76 = shl nuw nsw i32 %19, 1
  %77 = add nuw nsw i32 %16, 2
  %78 = add nuw nsw i32 %77, %76
  %79 = add nuw nsw i32 %78, %22
  %80 = lshr i32 %79, 2
  %81 = trunc nuw i32 %80 to i8
  %82 = getelementptr inbounds nuw i8, ptr %0, i64 67
  store i8 %81, ptr %82, align 1, !tbaa !14
  %83 = shl nuw nsw i32 %22, 1
  %84 = add nuw nsw i32 %19, 2
  %85 = add nuw nsw i32 %84, %83
  %86 = add nuw nsw i32 %85, %25
  %87 = lshr i32 %86, 2
  %88 = trunc nuw i32 %87 to i8
  %89 = getelementptr inbounds nuw i8, ptr %0, i64 99
  store i8 %88, ptr %89, align 1, !tbaa !14
  ret void
}